                        .module assign51.c
                        .area data
 0000           _key:
 0000                   .blkb 1
                        .area idata
 0000 00                .byte 0
                        .area data
 0001                   .dbfile M:\SYSC20~2\Assignments\ASSIGN~4\PART1~1/../lib/keyboard.c
 0001                   .dbsym s key _key c
                        .area text
 0000                   .dbfile M:\SYSC20~2\Assignments\ASSIGN~4\PART1~1/../lib/keyboard.c
 0000                   .dbfunc e keyboard_init _keyboard_init fV
 0000           _keyboard_init::
 0000                   .dbline -1
 0000                   .dbline 21
 0000           ; // By Korey Conway and Tanzeel Rana
 0000           ; 
 0000           ; #include <hcs12dp256.h>
 0000           ; #include <stdio.h>
 0000           ; #include "../lib/keyboard.c"
 0000           ; #include "../lib/lcd.c"
 0000           ; 
 0000           ; int speed = 45;
 0000           ; int temp  = 31;
 0000           ; //void keyboard_key_pushed_callback(char key);
 0000           ; 
 0000           ; int main()
 0000           ; {
 0000           ;       char key;
 0000           ;       
 0000           ;       // Setup terminal
 0000           ;       setbaud(BAUD19K);
 0000           ;       
 0000           ;       keyboard_init();
 0000           ;       lcd_init();
 0000           ;       INTR_ON();
 0000                   .dbline 22
 0000           ;       
 0000 7900F0            clr 0xf0
 0003                   .dbline 24
 0003           ;       lcd_display_speed(speed);
 0003           ;       lcd_display_temperature(temp); // Need to redisplay bottom line for some reason
 0003 1C025208          bset 0x252,#8
 0007                   .dbline 26
 0007           ;       
 0007           ;       while ( 1 ) {
 0007 1C025A0F          bset 0x25a,#15
 000B                   .dbline 27
 000B           ;               if ( key = keyboard_getchar() ) {
 000B 1C025008          bset 0x250,#8
 000F                   .dbline 28
 000F           ;                       if ( key == '0' ) {
 000F 1C02580F          bset 0x258,#15
 0013                   .dbline 29
 0013           ;                               break;
 0013 1D025008          bclr 0x250,#0x8
 0017                   .dbline 31
 0017           ;                       } else if ( key == 'E' ) {
 0017           ;                               ++speed;
 0017 1D0262F0          bclr 0x262,#0xf0
 001B                   .dbline 32
 001B           ;                               printf("Increasing speed to %d\n", speed);
 001B 1C0265F0          bset 0x265,#240
 001F                   .dbline 33
 001F           ;                               lcd_display_speed(speed);
 001F C6FF              ldab #255
 0021 7B0267            stab 0x267
 0024                   .dbline 34
 0024           ;                               lcd_display_temperature(temp); // Need to redisplay bottom line for some reason
 0024 790264            clr 0x264
 0027                   .dbline 35
 0027           ;                       } else if ( key == 'D' ) {
 0027 C6F0              ldab #240
 0029 7B0266            stab 0x266
 002C                   .dbline -2
 002C                   .dbline 36
 002C           ;                               --speed;
 002C           L3:
 002C                   .dbline 0 ; func end
 002C 3D                rts
 002D                   .dbend
                        .area data
 0001                   .dbfile M:\SYSC20~2\Assignments\ASSIGN~4\PART1~1/../lib/keyboard.c
 0001           L5:
 0001                   .blkb 2
                        .area idata
 0001 3132              .byte 49,50
                        .area data
 0003                   .dbfile M:\SYSC20~2\Assignments\ASSIGN~4\PART1~1/../lib/keyboard.c
 0003                   .blkb 2
                        .area idata
 0003 3341              .byte 51,'A
                        .area data
 0005                   .dbfile M:\SYSC20~2\Assignments\ASSIGN~4\PART1~1/../lib/keyboard.c
 0005                   .blkb 2
                        .area idata
 0005 3435              .byte 52,53
                        .area data
 0007                   .dbfile M:\SYSC20~2\Assignments\ASSIGN~4\PART1~1/../lib/keyboard.c
 0007                   .blkb 2
                        .area idata
 0007 3642              .byte 54,'B
                        .area data
 0009                   .dbfile M:\SYSC20~2\Assignments\ASSIGN~4\PART1~1/../lib/keyboard.c
 0009                   .blkb 2
                        .area idata
 0009 3738              .byte 55,56
                        .area data
 000B                   .dbfile M:\SYSC20~2\Assignments\ASSIGN~4\PART1~1/../lib/keyboard.c
 000B                   .blkb 2
                        .area idata
 000B 3943              .byte 57,'C
                        .area data
 000D                   .dbfile M:\SYSC20~2\Assignments\ASSIGN~4\PART1~1/../lib/keyboard.c
 000D                   .blkb 2
                        .area idata
 000D 4530              .byte 'E,48
                        .area data
 000F                   .dbfile M:\SYSC20~2\Assignments\ASSIGN~4\PART1~1/../lib/keyboard.c
 000F                   .blkb 2
                        .area idata
 000F 4644              .byte 'F,'D
                        .area data
 0011                   .dbfile M:\SYSC20~2\Assignments\ASSIGN~4\PART1~1/../lib/keyboard.c
                        .area text
 002D                   .dbfile M:\SYSC20~2\Assignments\ASSIGN~4\PART1~1/../lib/keyboard.c
 002D                   .dbfunc e keyboard_isr _keyboard_isr fV
 002D                   .dbsym s char_map L5 A[16:4:4]c
 002D           ;            row -> -6,x
 002D           ;       col_mask -> -4,x
 002D           ;            col -> -2,x
 002D           _keyboard_isr::
 002D 34                pshx
 002E B775              tfr s,x
 0030 1B98              leas -8,sp
 0032                   .dbline -1
 0032                   .dbline 43
 0032           ;                               printf("Decreasing speed to %d\n", speed);
 0032           ;                               lcd_display_speed(speed);
 0032           ;                               lcd_display_temperature(temp); // Need to redisplay bottom line for some reason
 0032           ;                       } else {
 0032           ;                               printf("Pushed: %c\n", key);
 0032           ;                       }
 0032           ;               }
 0032                   .dbline 44
 0032           ;       }
 0032 CC0000            ldd #0
 0035 6C1A              std -6,x
 0037                   .dbline 45
 0037           ;       
 0037 CC0000            ldd #0
 003A 6C1E              std -2,x
 003C                   .dbline 53
 003C           ;       return 0;
 003C           ; }
 003C           ; 
 003C           ; 
 003C           ; // void keyboard_key_pushed_callback(char key)
 003C           ; // {}
 003C           ; 
 003C           ; 
 003C 790266            clr 0x266
 003F                   .dbline 55
 003F           ; 
 003F           ; 
 003F                   ; vol
 003F F60267            ldab 0x267
 0042 87                clra
 0043 47                asra
 0044 56                rorb
 0045 47                asra
 0046 56                rorb
 0047 47                asra
 0048 56                rorb
 0049 47                asra
 004A 56                rorb
 004B 6C1C              std -4,x
 004D                   .dbline 58
 004D CC0000            ldd #0
 0050 6C1A              std -6,x
 0052           L6:
 0052                   .dbline 58
 0052           ; 
 0052           ; 
 0052           ; 
 0052                   .dbline 59
 0052           ; 
 0052 1C025008          bset 0x250,#8
 0056                   .dbline 60
 0056           ; 
 0056 CC0001            ldd #1
 0059 ED1A              ldy -6,x
 005B 8D0000            cpy #0
 005E 2704              beq X0
 0060           X1:
 0060 59                lsld
 0061 0436FC            dbne y,X1
 0064           X0:
 0064 8400              anda #0
 0066 C40F              andb #15
 0068 6C18              std -8,x
 006A                   ; vol
 006A F60258            ldab 0x258
 006D 87                clra
 006E 84FF              anda #255
 0070 C4F0              andb #240
 0072 AA18              ora -8,x
 0074 EA19              orb -7,x
 0076 7B0258            stab 0x258
 0079                   .dbline 61
 0079           ; 
 0079 1D025008          bclr 0x250,#0x8
 007D                   .dbline 63
 007D           ; 
 007D           ; 
 007D 1F0260F02E        brclr 0x260,#240,L10
 0082                   .dbline 63
 0082                   .dbline 65
 0082 CC0000            ldd #0
 0085 6C1E              std -2,x
 0087           L12:
 0087                   .dbline 65
 0087           ; 
 0087           ; 
 0087                   .dbline 66
 0087           ; 
 0087 EC1C              ldd -4,x
 0089 ED1E              ldy -2,x
 008B 8D0000            cpy #0
 008E 2705              beq X2
 0090           X3:
 0090 47                asra
 0091 56                rorb
 0092 0436FB            dbne y,X3
 0095           X2:
 0095 8400              anda #0
 0097 C401              andb #1
 0099 8C0000            cpd #0
 009C 2702              beq L16
 009E                   .dbline 66
 009E                   .dbline 67
 009E           ; 
 009E 2020              bra L8
 00A0           L16:
 00A0                   .dbline 69
 00A0           L13:
 00A0                   .dbline 65
 00A0 EC1E              ldd -2,x
 00A2 C30001            addd #1
 00A5 6C1E              std -2,x
 00A7                   .dbline 65
 00A7 EC1E              ldd -2,x
 00A9 8C0004            cpd #4
 00AC 2DD9              blt L12
 00AE                   .dbline 70
 00AE           ; 
 00AE           ; 
 00AE           ; 
 00AE 2010              bra L8
 00B0           L10:
 00B0                   .dbline 72
 00B0           L7:
 00B0                   .dbline 58
 00B0 EC1A              ldd -6,x
 00B2 C30001            addd #1
 00B5 6C1A              std -6,x
 00B7                   .dbline 58
 00B7 EC1A              ldd -6,x
 00B9 8C0004            cpd #4
 00BC 182DFF92          lblt L6
 00C0           L8:
 00C0                   .dbline 74
 00C0           ; 
 00C0           ; 
 00C0           ; 
 00C0           ; 
 00C0 EC1E              ldd -2,x
 00C2 8C0004            cpd #4
 00C5 2C1D              bge L18
 00C7 EC1A              ldd -6,x
 00C9 8C0004            cpd #4
 00CC 2C16              bge L18
 00CE                   .dbline 74
 00CE                   .dbline 75
 00CE           ; 
 00CE EC1A              ldd -6,x
 00D0 59                lsld
 00D1 59                lsld
 00D2 C30001            addd #L5
 00D5 6C18              std -8,x
 00D7 EC1E              ldd -2,x
 00D9 E318              addd -8,x
 00DB B7C6              xgdy
 00DD E640              ldab 0,y
 00DF 7B0000            stab _key
 00E2                   .dbline 77
 00E2 2003              bra L19
 00E4           L18:
 00E4                   .dbline 77
 00E4           ; 
 00E4           ; 
 00E4                   .dbline 78
 00E4           ; 
 00E4 790000            clr _key
 00E7                   .dbline 79
 00E7           ; 
 00E7           L19:
 00E7                   .dbline 81
 00E7           ; 
 00E7           ; 
 00E7 1C025008          bset 0x250,#8
 00EB                   .dbline 82
 00EB           ; 
 00EB 1C02580F          bset 0x258,#15
 00EF                   .dbline 83
 00EF           ; 
 00EF 1D025008          bclr 0x250,#0x8
 00F3                   .dbline 84
 00F3           ; 
 00F3 C6FF              ldab #255
 00F5 7B0267            stab 0x267
 00F8                   .dbline 85
 00F8           ; 
 00F8 C6F0              ldab #240
 00FA 7B0266            stab 0x266
 00FD                   .dbline -2
 00FD                   .dbline 86
 00FD           ; 
 00FD           L4:
 00FD B757              tfr x,s
 00FF 30                pulx
 0100                   .dbline 0 ; func end
 0100 0B                rti
 0101                   .dbsym l row -6 I
 0101                   .dbsym l col_mask -4 I
 0101                   .dbsym l col -2 I
 0101                   .dbend
 0101                   .dbfunc e keyboard_getchar _keyboard_getchar fc
 0101           ;           temp -> -1,x
 0101           _keyboard_getchar::
 0101 34                pshx
 0102 B775              tfr s,x
 0104 1B9E              leas -2,sp
 0106                   .dbline -1
 0106                   .dbline 92
 0106           ; H
 0106           ; H
 0106           ; H
 0106           ; H
 0106           ; H
 0106           ; H
 0106                   .dbline 93
 0106           ; H
 0106 18091F0000        movb _key,-1,x
 010B                   .dbline 94
 010B           ; H
 010B 790000            clr _key
 010E                   .dbline 95
 010E           ; H
 010E E61F              ldab -1,x
 0110 87                clra
 0111                   .dbline -2
 0111           L20:
 0111 B757              tfr x,s
 0113 30                pulx
 0114                   .dbline 0 ; func end
 0114 3D                rts
 0115                   .dbsym l temp -1 c
 0115                   .dbend
 0115                   .dbfile M:\SYSC20~2\Assignments\ASSIGN~4\PART1~1/../lib/lcd.c
 0115                   .dbfunc e lcd_init _lcd_init fV
 0115           _lcd_init::
 0115                   .dbline -1
 0115                   .dbline 21
 0115                   .dbline 22
 0115 160000            jsr _Lcd2PP_Init
 0118                   .dbline -2
 0118                   .dbline 23
 0118           L21:
 0118                   .dbline 0 ; func end
 0118 3D                rts
 0119                   .dbend
 0119                   .dbfunc e lcd_print _lcd_print fV
 0119           ;          ?temp -> -2,x
 0119           ;        address -> 6,x
 0119           ;         string -> 2,x
 0119           _lcd_print::
 0119 3B                pshd
 011A 34                pshx
 011B B775              tfr s,x
 011D 1B9E              leas -2,sp
 011F                   .dbline -1
 011F                   .dbline 29
 011F                   .dbline 30
 011F EC06              ldd 6,x
 0121 87                clra
 0122 160000            jsr _LCD_instruction
 0125 2013              bra L24
 0127           L23:
 0127                   .dbline 31
 0127                   .dbline 32
 0127 1802021E          movw 2,x,-2,x
 012B EC1E              ldd -2,x
 012D C30001            addd #1
 0130 6C02              std 2,x
 0132 ED1E              ldy -2,x
 0134 E640              ldab 0,y
 0136 87                clra
 0137 160000            jsr _LCD_display
 013A                   .dbline 33
 013A           L24:
 013A                   .dbline 31
 013A ED02              ldy 2,x
 013C E740              tst 0,y
 013E 26E7              bne L23
 0140                   .dbline -2
 0140                   .dbline 34
 0140           L22:
 0140 B757              tfr x,s
 0142 30                pulx
 0143 1B82              leas 2,sp
 0145                   .dbline 0 ; func end
 0145 3D                rts
 0146                   .dbsym l address 6 I
 0146                   .dbsym l string 2 pc
 0146                   .dbend
 0146                   .dbfunc e lcd_print_top _lcd_print_top fV
 0146           ;         string -> 2,x
 0146           _lcd_print_top::
 0146 3B                pshd
 0147 34                pshx
 0148 B775              tfr s,x
 014A 1B9E              leas -2,sp
 014C                   .dbline -1
 014C                   .dbline 40
 014C                   .dbline 41
 014C CC0000            ldd #0
 014F 6C80              std 0,sp
 0151 EC02              ldd 2,x
 0153 160119            jsr _lcd_print
 0156                   .dbline -2
 0156                   .dbline 42
 0156           L26:
 0156 B757              tfr x,s
 0158 30                pulx
 0159 1B82              leas 2,sp
 015B                   .dbline 0 ; func end
 015B 3D                rts
 015C                   .dbsym l string 2 pc
 015C                   .dbend
 015C                   .dbfunc e lcd_print_bottom _lcd_print_bottom fV
 015C           ;         string -> 2,x
 015C           _lcd_print_bottom::
 015C 3B                pshd
 015D 34                pshx
 015E B775              tfr s,x
 0160 1B9E              leas -2,sp
 0162                   .dbline -1
 0162                   .dbline 48
 0162                   .dbline 49
 0162 CC00C0            ldd #192
 0165 6C80              std 0,sp
 0167 EC02              ldd 2,x
 0169 160119            jsr _lcd_print
 016C                   .dbline -2
 016C                   .dbline 50
 016C           L27:
 016C B757              tfr x,s
 016E 30                pulx
 016F 1B82              leas 2,sp
 0171                   .dbline 0 ; func end
 0171 3D                rts
 0172                   .dbsym l string 2 pc
 0172                   .dbend
 0172                   .dbfunc e lcd_display_speed _lcd_display_speed fV
 0172           ;         string -> -2,x
 0172           ;          speed -> 2,x
 0172           _lcd_display_speed::
 0172 3B                pshd
 0173 34                pshx
 0174 B775              tfr s,x
 0176 1B9A              leas -6,sp
 0178                   .dbline -1
 0178                   .dbline 56
 0178                   .dbline 58
 0178 18020282          movw 2,x,2,sp
 017C CC0296            ldd #L29
 017F 6C80              std 0,sp
 0181 EC1E              ldd -2,x
 0183 160000            jsr _sprintf
 0186                   .dbline 59
 0186 EC1E              ldd -2,x
 0188 160146            jsr _lcd_print_top
 018B                   .dbline -2
 018B                   .dbline 60
 018B           L28:
 018B B757              tfr x,s
 018D 30                pulx
 018E 1B82              leas 2,sp
 0190                   .dbline 0 ; func end
 0190 3D                rts
 0191                   .dbsym l string -2 pc
 0191                   .dbsym l speed 2 I
 0191                   .dbend
 0191                   .dbfunc e lcd_display_temperature _lcd_display_temperature fV
 0191           ;         string -> -2,x
 0191           ;           temp -> 2,x
 0191           _lcd_display_temperature::
 0191 3B                pshd
 0192 34                pshx
 0193 B775              tfr s,x
 0195 1B9A              leas -6,sp
 0197                   .dbline -1
 0197                   .dbline 66
 0197                   .dbline 68
 0197 18020282          movw 2,x,2,sp
 019B CC0286            ldd #L31
 019E 6C80              std 0,sp
 01A0 EC1E              ldd -2,x
 01A2 160000            jsr _sprintf
 01A5                   .dbline 69
 01A5 EC1E              ldd -2,x
 01A7 16015C            jsr _lcd_print_bottom
 01AA                   .dbline -2
 01AA                   .dbline 70
 01AA           L30:
 01AA B757              tfr x,s
 01AC 30                pulx
 01AD 1B82              leas 2,sp
 01AF                   .dbline 0 ; func end
 01AF 3D                rts
 01B0                   .dbsym l string -2 pc
 01B0                   .dbsym l temp 2 I
 01B0                   .dbend
                        .area data
 0011                   .dbfile M:\SYSC20~2\Assignments\ASSIGN~4\PART1~1/../lib/lcd.c
 0011           _speed::
 0011                   .blkb 2
                        .area idata
 0011 002D              .word 45
                        .area data
 0013                   .dbfile M:\SYSC20~2\Assignments\ASSIGN~4\PART1~1/../lib/lcd.c
 0013                   .dbfile M:\SYSC20~2\Assignments\ASSIGN~4\PART1~1\assign51.c
 0013                   .dbsym e speed _speed I
 0013           _temp::
 0013                   .blkb 2
                        .area idata
 0013 001F              .word 31
                        .area data
 0015                   .dbfile M:\SYSC20~2\Assignments\ASSIGN~4\PART1~1\assign51.c
 0015                   .dbsym e temp _temp I
                        .area text
 01B0                   .dbfile M:\SYSC20~2\Assignments\ASSIGN~4\PART1~1\assign51.c
 01B0                   .dbfunc e main _main fI
 01B0           ;          ?temp -> -2,x
 01B0           ;            key -> -1,x
 01B0           _main::
 01B0 34                pshx
 01B1 B775              tfr s,x
 01B3 1B9C              leas -4,sp
 01B5                   .dbline -1
 01B5                   .dbline 13
 01B5                   .dbline 17
 01B5 CC001A            ldd #26
 01B8 160000            jsr _setbaud
 01BB                   .dbline 19
 01BB 160000            jsr _keyboard_init
 01BE                   .dbline 20
 01BE 160115            jsr _lcd_init
 01C1                   .dbline 21
 01C1 10EF                      cli
 01C3           
 01C3                   .dbline 23
 01C3 FC0011            ldd _speed
 01C6 160172            jsr _lcd_display_speed
 01C9                   .dbline 24
 01C9 FC0013            ldd _temp
 01CC 160191            jsr _lcd_display_temperature
 01CF 2070              bra L34
 01D1           L33:
 01D1                   .dbline 26
 01D1                   .dbline 27
 01D1 160101            jsr _keyboard_getchar
 01D4 6B1E              stab -2,x
 01D6 180A1E1F          movb -2,x,-1,x
 01DA E71E              tst -2,x
 01DC 2763              beq L36
 01DE                   .dbline 27
 01DE                   .dbline 28
 01DE E61F              ldab -1,x
 01E0 C130              cmpb #48
 01E2 2602              bne L38
 01E4                   .dbline 28
 01E4                   .dbline 29
 01E4 205D              bra L35
 01E6           L38:
 01E6                   .dbline 30
 01E6 E61F              ldab -1,x
 01E8 C145              cmpb #69
 01EA 2622              bne L40
 01EC                   .dbline 30
 01EC                   .dbline 31
 01EC FC0011            ldd _speed
 01EF C30001            addd #1
 01F2 7C0011            std _speed
 01F5                   .dbline 32
 01F5 1801800011        movw _speed,0,sp
 01FA CC026E            ldd #L42
 01FD 160000            jsr _printf
 0200                   .dbline 33
 0200 FC0011            ldd _speed
 0203 160172            jsr _lcd_display_speed
 0206                   .dbline 34
 0206 FC0013            ldd _temp
 0209 160191            jsr _lcd_display_temperature
 020C                   .dbline 35
 020C 2033              bra L41
 020E           L40:
 020E                   .dbline 35
 020E E61F              ldab -1,x
 0210 C144              cmpb #68
 0212 2622              bne L43
 0214                   .dbline 35
 0214                   .dbline 36
 0214 FC0011            ldd _speed
 0217 830001            subd #1
 021A 7C0011            std _speed
 021D                   .dbline 37
 021D 1801800011        movw _speed,0,sp
 0222 CC0256            ldd #L45
 0225 160000            jsr _printf
 0228                   .dbline 38
 0228 FC0011            ldd _speed
 022B 160172            jsr _lcd_display_speed
 022E                   .dbline 39
 022E FC0013            ldd _temp
 0231 160191            jsr _lcd_display_temperature
 0234                   .dbline 40
 0234 200B              bra L44
 0236           L43:
 0236                   .dbline 40
 0236                   .dbline 41
 0236 E61F              ldab -1,x
 0238 87                clra
 0239 6C80              std 0,sp
 023B CC024A            ldd #L46
 023E 160000            jsr _printf
 0241                   .dbline 42
 0241           L44:
 0241           L41:
 0241                   .dbline 43
 0241           L36:
 0241                   .dbline 44
 0241           L34:
 0241                   .dbline 26
 0241 208E              bra L33
 0243           L35:
 0243                   .dbline 46
 0243 CC0000            ldd #0
 0246                   .dbline -2
 0246           L32:
 0246 B757              tfr x,s
 0248 30                pulx
 0249                   .dbline 0 ; func end
 0249 3D                rts
 024A                   .dbsym l key -1 c
 024A                   .dbend
 024A           L46:
 024A 5075736865643A2025630A00  .byte 'P,'u,'s,'h,'e,'d,58,32,37,'c,10,0
 0256           L45:
 0256 44656372656173696E67207370656564  .byte 'D,'e,'c,'r,'e,'a,'s,'i,'n,'g,32,'s,'p,'e,'e,'d
 0266 20746F2025640A00  .byte 32,'t,'o,32,37,'d,10,0
 026E           L42:
 026E 496E6372656173696E67207370656564  .byte 'I,'n,'c,'r,'e,'a,'s,'i,'n,'g,32,'s,'p,'e,'e,'d
 027E 20746F2025640A00  .byte 32,'t,'o,32,37,'d,10,0
 0286           L31:
 0286 54656D70657261747572653A25644600  .byte 'T,'e,'m,'p,'e,'r,'a,'t,'u,'r,'e,58,37,'d,'F,0
 0296           L29:
 0296 53706565643A20256400      .byte 'S,'p,'e,'e,'d,58,32,37,'d,0
