                        .module LCD.c
                        .area text
 0000                   .dbfile LCD.c
 0000                   .dbfunc e lcd_istruction _lcd_istruction fV
 0000           ;             d1 -> -1,x
 0000           ;           data -> 3,x
 0000           _lcd_istruction::
 0000 3B                pshd
 0001 34                pshx
 0002 B775              tfr s,x
 0004 1B9C              leas -4,sp
 0006                   .dbline -1
 0006                   .dbline 5
 0006           ; #include <stdio.h>
 0006           ; #include "hcs12dp256.h"
 0006           ; 
 0006           ; 
 0006           ; void lcd_istruction(char data){
 0006                   .dbline 7
 0006           ;        
 0006           ;        char d1 = 0x00;
 0006 691F              clr -1,x
 0008                   .dbline 8
 0008           ;        d1 = data;
 0008 180A031F          movb 3,x,-1,x
 000C                   .dbline 9
 000C           ;        d1 = d1 >> 4;
 000C E61F              ldab -1,x
 000E 87                clra
 000F 47                asra
 0010 56                rorb
 0011 47                asra
 0012 56                rorb
 0013 47                asra
 0014 56                rorb
 0015 47                asra
 0016 56                rorb
 0017 6B1F              stab -1,x
 0019                   .dbline 10
 0019           ;        PTP |= d1;
 0019 E61F              ldab -1,x
 001B 87                clra
 001C 6C1C              std -4,x
 001E                   ; vol
 001E F60258            ldab 0x258
 0021 87                clra
 0022 AA1C              ora -4,x
 0024 EA1D              orb -3,x
 0026 7B0258            stab 0x258
 0029                   .dbline 11
 0029           ;        PTT &= ~0x04;           //set RS=0 as it is an instruction
 0029 1D024004          bclr 0x240,#0x4
 002D                   .dbline 12
 002D           ;        PTT |= 0x08;            
 002D 1C024008          bset 0x240,#8
 0031                   .dbline 13
 0031           ;        delay(100);
 0031 CC0064            ldd #100
 0034 1600D4            jsr _delay
 0037                   .dbline 14
 0037           ;        PTT &= ~0x08;
 0037 1D024008          bclr 0x240,#0x8
 003B                   .dbline 16
 003B           ;        
 003B           ;        d1 = data;
 003B 180A031F          movb 3,x,-1,x
 003F                   .dbline 17
 003F           ;        d1 &= 0x0F;
 003F 0D1FF0            bclr -1,x,#0xf0
 0042                   .dbline 18
 0042           ;        PTP |= d1;
 0042 E61F              ldab -1,x
 0044 87                clra
 0045 6C1C              std -4,x
 0047                   ; vol
 0047 F60258            ldab 0x258
 004A 87                clra
 004B AA1C              ora -4,x
 004D EA1D              orb -3,x
 004F 7B0258            stab 0x258
 0052                   .dbline 19
 0052           ;        PTT &= ~0x04;           //set RS=0 as it is an instruction
 0052 1D024004          bclr 0x240,#0x4
 0056                   .dbline 20
 0056           ;        PTT |= 0x08;
 0056 1C024008          bset 0x240,#8
 005A                   .dbline 21
 005A           ;        delay(100);
 005A CC0064            ldd #100
 005D 1600D4            jsr _delay
 0060                   .dbline 22
 0060           ;        PTT &= ~0x08;
 0060 1D024008          bclr 0x240,#0x8
 0064                   .dbline -2
 0064                   .dbline 24
 0064           ;        
 0064           ; }
 0064           L3:
 0064 B757              tfr x,s
 0066 30                pulx
 0067 1B82              leas 2,sp
 0069                   .dbline 0 ; func end
 0069 3D                rts
 006A                   .dbsym l d1 -1 c
 006A                   .dbsym l data 2 I
 006A                   .dbsym l data 3 c
 006A                   .dbend
 006A                   .dbfunc e lcd_data _lcd_data fV
 006A           ;             d1 -> -1,x
 006A           ;           data -> 3,x
 006A           _lcd_data::
 006A 3B                pshd
 006B 34                pshx
 006C B775              tfr s,x
 006E 1B9C              leas -4,sp
 0070                   .dbline -1
 0070                   .dbline 26
 0070           ; 
 0070           ; void lcd_data(char data){
 0070                   .dbline 28
 0070           ;        
 0070           ;        char d1 = 0x00;
 0070 691F              clr -1,x
 0072                   .dbline 29
 0072           ;        d1 = data;
 0072 180A031F          movb 3,x,-1,x
 0076                   .dbline 30
 0076           ;        d1 = d1 >> 4;
 0076 E61F              ldab -1,x
 0078 87                clra
 0079 47                asra
 007A 56                rorb
 007B 47                asra
 007C 56                rorb
 007D 47                asra
 007E 56                rorb
 007F 47                asra
 0080 56                rorb
 0081 6B1F              stab -1,x
 0083                   .dbline 31
 0083           ;        PTP |= d1;
 0083 E61F              ldab -1,x
 0085 87                clra
 0086 6C1C              std -4,x
 0088                   ; vol
 0088 F60258            ldab 0x258
 008B 87                clra
 008C AA1C              ora -4,x
 008E EA1D              orb -3,x
 0090 7B0258            stab 0x258
 0093                   .dbline 32
 0093           ;        PTT |= 0x04;            //set RS=1 as it is data
 0093 1C024004          bset 0x240,#4
 0097                   .dbline 33
 0097           ;        PTT |= 0x08;
 0097 1C024008          bset 0x240,#8
 009B                   .dbline 34
 009B           ;        delay(100);
 009B CC0064            ldd #100
 009E 1600D4            jsr _delay
 00A1                   .dbline 35
 00A1           ;        PTT &= ~0x08;
 00A1 1D024008          bclr 0x240,#0x8
 00A5                   .dbline 37
 00A5           ;        
 00A5           ;        d1 = data;
 00A5 180A031F          movb 3,x,-1,x
 00A9                   .dbline 38
 00A9           ;        d1 &= 0x0F;
 00A9 0D1FF0            bclr -1,x,#0xf0
 00AC                   .dbline 39
 00AC           ;        PTP |= d1;
 00AC E61F              ldab -1,x
 00AE 87                clra
 00AF 6C1C              std -4,x
 00B1                   ; vol
 00B1 F60258            ldab 0x258
 00B4 87                clra
 00B5 AA1C              ora -4,x
 00B7 EA1D              orb -3,x
 00B9 7B0258            stab 0x258
 00BC                   .dbline 40
 00BC           ;        PTT |= 0x04;            //set RS=1 as it is data
 00BC 1C024004          bset 0x240,#4
 00C0                   .dbline 41
 00C0           ;        PTT |= 0x08;
 00C0 1C024008          bset 0x240,#8
 00C4                   .dbline 42
 00C4           ;        delay(100);
 00C4 CC0064            ldd #100
 00C7 1600D4            jsr _delay
 00CA                   .dbline 43
 00CA           ;        PTT &= ~0x08;
 00CA 1D024008          bclr 0x240,#0x8
 00CE                   .dbline -2
 00CE                   .dbline 45
 00CE           ;        
 00CE           ; }
 00CE           L4:
 00CE B757              tfr x,s
 00D0 30                pulx
 00D1 1B82              leas 2,sp
 00D3                   .dbline 0 ; func end
 00D3 3D                rts
 00D4                   .dbsym l d1 -1 c
 00D4                   .dbsym l data 2 I
 00D4                   .dbsym l data 3 c
 00D4                   .dbend
 00D4                   .dbfunc e delay _delay fV
 00D4           ;              i -> -6,x
 00D4           ;  delayConstant -> -4,x
 00D4           ;              j -> -2,x
 00D4           ;             ms -> 2,x
 00D4           _delay::
 00D4 3B                pshd
 00D5 34                pshx
 00D6 B775              tfr s,x
 00D8 1B9A              leas -6,sp
 00DA                   .dbline -1
 00DA                   .dbline 47
 00DA           ; 
 00DA           ; void delay (int ms){
 00DA                   .dbline 49
 00DA           ; 
 00DA           ;        const int delayConstant = 1234;
 00DA CC04D2            ldd #1234
 00DD 6C1C              std -4,x
 00DF                   .dbline 52
 00DF CC0000            ldd #0
 00E2 6C1A              std -6,x
 00E4 201B              bra L9
 00E6           L6:
 00E6                   .dbline 52
 00E6           ;        int i, j;
 00E6           ;        
 00E6           ;        for (i=0; i<ms; i++) {
 00E6                   .dbline 53
 00E6 CC0000            ldd #0
 00E9 6C1E              std -2,x
 00EB 2007              bra L13
 00ED           L10:
 00ED                   .dbline 53
 00ED                   .dbline 54
 00ED           L11:
 00ED                   .dbline 53
 00ED EC1E              ldd -2,x
 00EF C30001            addd #1
 00F2 6C1E              std -2,x
 00F4           L13:
 00F4                   .dbline 53
 00F4 EC1E              ldd -2,x
 00F6 AC1C              cpd -4,x
 00F8 2DF3              blt L10
 00FA                   .dbline 55
 00FA           L7:
 00FA                   .dbline 52
 00FA EC1A              ldd -6,x
 00FC C30001            addd #1
 00FF 6C1A              std -6,x
 0101           L9:
 0101                   .dbline 52
 0101 EC1A              ldd -6,x
 0103 AC02              cpd 2,x
 0105 2DDF              blt L6
 0107                   .dbline -2
 0107                   .dbline 57
 0107           ;                for (j=0; j<delayConstant; j++) {
 0107           ;                }
 0107           ;       }
 0107           ;       
 0107           ; }
 0107           L5:
 0107 B757              tfr x,s
 0109 30                pulx
 010A 1B82              leas 2,sp
 010C                   .dbline 0 ; func end
 010C 3D                rts
 010D                   .dbsym l i -6 I
 010D                   .dbsym l delayConstant -4 I
 010D                   .dbsym l j -2 I
 010D                   .dbsym l ms 2 I
 010D                   .dbend
 010D                   .dbfunc e main _main fV
 010D           ;           test -> -1,x
 010D           _main::
 010D 34                pshx
 010E B775              tfr s,x
 0110 1B9C              leas -4,sp
 0112                   .dbline -1
 0112                   .dbline 59
 0112           ; 
 0112           ; void main(){
 0112                   .dbline 61
 0112           ;        
 0112           ;       char test = 0x00;
 0112 691F              clr -1,x
 0114                   .dbline 63
 0114           ;                 
 0114           ;       PTS = 0xFF;                             //enabling U21_EN for the LCD
 0114 C6FF              ldab #255
 0116 7B0248            stab 0x248
 0119                   .dbline 64
 0119           ;       PTT &= ~0x02;                   //set RW=0
 0119 1D024002          bclr 0x240,#0x2
 011D                   .dbline 66
 011D           ;       
 011D           ;       lcd_istruction(0x38);             //function set
 011D CC0038            ldd #56
 0120 160000            jsr _lcd_istruction
 0123                   .dbline 67
 0123           ;       lcd_istruction(0x0E);             //Display on/off control
 0123 CC000E            ldd #14
 0126 160000            jsr _lcd_istruction
 0129                   .dbline 68
 0129           ;       lcd_istruction(0x06);             //Entry Mode set
 0129 CC0006            ldd #6
 012C 160000            jsr _lcd_istruction
 012F                   .dbline 69
 012F           ;       lcd_istruction(0x01);             //clear display
 012F CC0001            ldd #1
 0132 160000            jsr _lcd_istruction
 0135 2019              bra L16
 0137           L15:
 0137                   .dbline 71
 0137                   .dbline 72
 0137 E61F              ldab -1,x
 0139 87                clra
 013A 16006A            jsr _lcd_data
 013D                   .dbline 73
 013D E61F              ldab -1,x
 013F 87                clra
 0140 6C80              std 0,sp
 0142 CC0164            ldd #L18
 0145 160000            jsr _printf
 0148                   .dbline 74
 0148 E61F              ldab -1,x
 014A 87                clra
 014B C30001            addd #1
 014E 6B1F              stab -1,x
 0150                   .dbline 75
 0150           L16:
 0150                   .dbline 71
 0150           ;       
 0150           ;       while(test<0xFF){
 0150 E61F              ldab -1,x
 0152 C1FF              cmpb #255
 0154 25E1              blo L15
 0156                   .dbline 76
 0156           ;       lcd_data(test);
 0156           ;       printf("test : ",test);
 0156           ;       test++;
 0156           ;       }
 0156           ;       printf("End");
 0156 CC0160            ldd #L19
 0159 160000            jsr _printf
 015C                   .dbline -2
 015C                   .dbline 78
 015C           ;       
 015C           ; }
 015C           L14:
 015C B757              tfr x,s
 015E 30                pulx
 015F                   .dbline 0 ; func end
 015F 3D                rts
 0160                   .dbsym l test -1 c
 0160                   .dbend
 0160           L19:
 0160 456E6400          .byte 'E,'n,'d,0
 0164           L18:
 0164 74657374203A2000  .byte 't,'e,'s,'t,32,58,32,0
