                        .module LCD_test.c
                        .area text
 0000                   .dbfile LCD_test.c
 0000                   .dbfunc e main _main fV
 0000           _main::
 0000                   .dbline -1
 0000                   .dbline 15
 0000           ; #include <stdio.h>
 0000           ; #include "hcs12dp256.h"
 0000           ; 
 0000           ; void init(void);
 0000           ; void delay(int ms);
 0000           ; 
 0000           ; 
 0000           ; //LCD subroutines
 0000           ; extern  void LCD_display(char);
 0000           ; void Lcd2PP_Init(void);
 0000           ; void LCD_instruction(char);
 0000           ; void clearScreen(void);
 0000           ; void DisplayLCD(char string[], char string1[], char string2[]);
 0000           ; 
 0000           ; void main (){
 0000                   .dbline 17
 0000           ;        
 0000           ;        init();
 0000 160000            jsr _init
 0003                   .dbline 18
 0003           ;        Lcd2PP_Init();
 0003 160000            jsr _Lcd2PP_Init
 0006                   .dbline -2
 0006                   .dbline 22
 0006           ;                
 0006           ;        
 0006           ;        
 0006           ; }
 0006           L3:
 0006                   .dbline 0 ; func end
 0006 3D                rts
 0007                   .dbend
 0007                   .dbfunc e clearScreen _clearScreen fV
 0007           _clearScreen::
 0007 34                pshx
 0008 B775              tfr s,x
 000A 1B9C              leas -4,sp
 000C                   .dbline -1
 000C                   .dbline 24
 000C           ; 
 000C           ; void clearScreen(void){
 000C                   .dbline 25
 000C           ;        LCD_instruction(0x00);
 000C CC0000            ldd #0
 000F 160000            jsr _LCD_instruction
 0012                   .dbline 26
 0012           ;        DisplayLCD(" "," "," ");
 0012 CC00EC            ldd #L5
 0015 6C82              std 2,sp
 0017 CC00EC            ldd #L5
 001A 6C80              std 0,sp
 001C CC00EC            ldd #L5
 001F 16003C            jsr _DisplayLCD
 0022                   .dbline 27
 0022           ;        LCD_instruction(0xC0);
 0022 CC00C0            ldd #192
 0025 160000            jsr _LCD_instruction
 0028                   .dbline 28
 0028           ;        DisplayLCD(" "," "," ");
 0028 CC00EC            ldd #L5
 002B 6C82              std 2,sp
 002D CC00EC            ldd #L5
 0030 6C80              std 0,sp
 0032 CC00EC            ldd #L5
 0035 16003C            jsr _DisplayLCD
 0038                   .dbline -2
 0038                   .dbline 29
 0038           ; }
 0038           L4:
 0038 B757              tfr x,s
 003A 30                pulx
 003B                   .dbline 0 ; func end
 003B 3D                rts
 003C                   .dbend
 003C                   .dbfunc e DisplayLCD _DisplayLCD fV
 003C           ;         number -> -2,x
 003C           ;        string2 -> 8,x
 003C           ;        string1 -> 6,x
 003C           ;         string -> 2,x
 003C           _DisplayLCD::
 003C 3B                pshd
 003D 34                pshx
 003E B775              tfr s,x
 0040 1B9E              leas -2,sp
 0042                   .dbline -1
 0042                   .dbline 31
 0042           ; 
 0042           ; void DisplayLCD(char string[], char string1[], char string2[]){
 0042                   .dbline 32
 0042           ;        int number = 0;
 0042 CC0000            ldd #0
 0045 6C1E              std -2,x
 0047                   .dbline 34
 0047           L7:
 0047                   .dbline 34
 0047           ;        
 0047           ;        for(;;){
 0047                   .dbline 35
 0047           ;               LCD_display(*string);
 0047 ED02              ldy 2,x
 0049 E640              ldab 0,y
 004B 87                clra
 004C 160000            jsr _LCD_display
 004F                   .dbline 36
 004F           ;               string += 0x01;
 004F EC02              ldd 2,x
 0051 C30001            addd #1
 0054 6C02              std 2,x
 0056                   .dbline 37
 0056           ;               if(number == 16){
 0056 EC1E              ldd -2,x
 0058 8C0010            cpd #16
 005B 2606              bne L11
 005D                   .dbline 37
 005D                   .dbline 38
 005D           ;                       LCD_instruction(0xC0);
 005D CC00C0            ldd #192
 0060 160000            jsr _LCD_instruction
 0063                   .dbline 39
 0063           ;               }
 0063           L11:
 0063                   .dbline 40
 0063           ;               if( *string == 0 ){
 0063 ED02              ldy 2,x
 0065 E740              tst 0,y
 0067 26DE              bne L7
 0069                   .dbline 40
 0069                   .dbline 41
 0069           ;                       break;
 0069                   .dbline 43
 0069           ;               }
 0069           ;        }
 0069                   .dbline 34
 0069                   .dbline 34
 0069           L9:
 0069                   .dbline 44
 0069           L15:
 0069                   .dbline 44
 0069           ;        for(;;){
 0069                   .dbline 45
 0069           ;               LCD_display(*string);
 0069 ED02              ldy 2,x
 006B E640              ldab 0,y
 006D 87                clra
 006E 160000            jsr _LCD_display
 0071                   .dbline 46
 0071           ;               string1 += 0x01;
 0071 EC06              ldd 6,x
 0073 C30001            addd #1
 0076 6C06              std 6,x
 0078                   .dbline 47
 0078           ;               if(number == 16){
 0078 EC1E              ldd -2,x
 007A 8C0010            cpd #16
 007D 2606              bne L19
 007F                   .dbline 47
 007F                   .dbline 48
 007F           ;                       LCD_instruction(0xC0);
 007F CC00C0            ldd #192
 0082 160000            jsr _LCD_instruction
 0085                   .dbline 49
 0085           ;               }
 0085           L19:
 0085                   .dbline 50
 0085           ;               if( *string1 == 0 ){
 0085 ED06              ldy 6,x
 0087 E740              tst 0,y
 0089 26DE              bne L15
 008B                   .dbline 50
 008B                   .dbline 51
 008B           ;                       break;
 008B                   .dbline 53
 008B           ;               }
 008B           ;        }
 008B                   .dbline 44
 008B                   .dbline 44
 008B           L17:
 008B                   .dbline 54
 008B           L23:
 008B                   .dbline 54
 008B           ;        for(;;){
 008B                   .dbline 55
 008B           ;               LCD_display(*string);
 008B ED02              ldy 2,x
 008D E640              ldab 0,y
 008F 87                clra
 0090 160000            jsr _LCD_display
 0093                   .dbline 56
 0093           ;               string2 += 0x01;
 0093 EC08              ldd 8,x
 0095 C30001            addd #1
 0098 6C08              std 8,x
 009A                   .dbline 57
 009A           ;               if(number == 16){
 009A EC1E              ldd -2,x
 009C 8C0010            cpd #16
 009F 2606              bne L27
 00A1                   .dbline 57
 00A1                   .dbline 58
 00A1           ;                       LCD_instruction(0xC0);
 00A1 CC00C0            ldd #192
 00A4 160000            jsr _LCD_instruction
 00A7                   .dbline 59
 00A7           ;               }
 00A7           L27:
 00A7                   .dbline 60
 00A7 ED08              ldy 8,x
 00A9 E740              tst 0,y
 00AB 26DE              bne L23
 00AD                   .dbline 60
 00AD                   .dbline 61
 00AD                   .dbline 63
 00AD                   .dbline 54
 00AD                   .dbline 54
 00AD           L25:
 00AD                   .dbline -2
 00AD                   .dbline 64
 00AD           ;               if( *string2 == 0 ){
 00AD           ;                       break;
 00AD           ;               }
 00AD           ;        }
 00AD           ; }
 00AD           L6:
 00AD B757              tfr x,s
 00AF 30                pulx
 00B0 1B82              leas 2,sp
 00B2                   .dbline 0 ; func end
 00B2 3D                rts
 00B3                   .dbsym l number -2 I
 00B3                   .dbsym l string2 8 pc
 00B3                   .dbsym l string1 6 pc
 00B3                   .dbsym l string 2 pc
 00B3                   .dbend
 00B3                   .dbfunc e delay _delay fV
 00B3           ;  delayConstant -> -6,x
 00B3           ;              i -> -4,x
 00B3           ;              j -> -2,x
 00B3           ;             ms -> 2,x
 00B3           _delay::
 00B3 3B                pshd
 00B4 34                pshx
 00B5 B775              tfr s,x
 00B7 1B9A              leas -6,sp
 00B9                   .dbline -1
 00B9                   .dbline 66
 00B9           ; 
 00B9           ; void delay(int ms){
 00B9                   .dbline 67
 00B9           ;        const int delayConstant = 1234;
 00B9 CC04D2            ldd #1234
 00BC 6C1A              std -6,x
 00BE                   .dbline 70
 00BE CC0000            ldd #0
 00C1 6C1C              std -4,x
 00C3 201B              bra L35
 00C5           L32:
 00C5                   .dbline 70
 00C5           ;        int i,j;
 00C5           ;        
 00C5           ;        for(i=0;i<ms;i++){
 00C5                   .dbline 71
 00C5 CC0000            ldd #0
 00C8 6C1E              std -2,x
 00CA 2007              bra L39
 00CC           L36:
 00CC                   .dbline 71
 00CC                   .dbline 72
 00CC           L37:
 00CC                   .dbline 71
 00CC EC1E              ldd -2,x
 00CE C30001            addd #1
 00D1 6C1E              std -2,x
 00D3           L39:
 00D3                   .dbline 71
 00D3 EC1E              ldd -2,x
 00D5 AC02              cpd 2,x
 00D7 2DF3              blt L36
 00D9                   .dbline 73
 00D9           L33:
 00D9                   .dbline 70
 00D9 EC1C              ldd -4,x
 00DB C30001            addd #1
 00DE 6C1C              std -4,x
 00E0           L35:
 00E0                   .dbline 70
 00E0 EC1C              ldd -4,x
 00E2 AC02              cpd 2,x
 00E4 2DDF              blt L32
 00E6                   .dbline -2
 00E6                   .dbline 74
 00E6           ;                  for(j=0;j<ms;j++){
 00E6           ;                  }
 00E6           ;        }
 00E6           ; }
 00E6           L31:
 00E6 B757              tfr x,s
 00E8 30                pulx
 00E9 1B82              leas 2,sp
 00EB                   .dbline 0 ; func end
 00EB 3D                rts
 00EC                   .dbsym l delayConstant -6 I
 00EC                   .dbsym l i -4 I
 00EC                   .dbsym l j -2 I
 00EC                   .dbsym l ms 2 I
 00EC                   .dbend
 00EC           L5:
 00EC 2000              .byte 32,0
